target datalayout = "e-m:e-p270:32:32-p271:32:32-p272:64:64-i64:64-i128:128-f80:128-n8:16:32:64-S128"
target triple = "x86_64-pc-linux-gnu"

%struct.slurm_msg = type { %struct.sockaddr_storage, ptr, i32, i32, i32, i8, i32, i8, i32, ptr, ptr, i32, ptr, ptr, i16, i8, i16, i16, %struct.forward, ptr, %struct.sockaddr_storage, ptr }
%struct.forward = type { %struct.slurm_node_alias_addrs_t, i16, i16, ptr, i32, i16, i16 }
%struct.slurm_node_alias_addrs_t = type { i64, ptr, ptr, i32, ptr }
%struct.sockaddr_storage = type { i16, [118 x i8], i64 }
%struct.ret_data_info = type { i16, i32, ptr, ptr }

@.str = private unnamed_addr constant [9 x i8] c"signal.c\00", align 1
@__func__._local_send_recv_rc_msgs = private unnamed_addr constant [25 x i8] c"_local_send_recv_rc_msgs\00", align 1
@.str.1 = private unnamed_addr constant [39 x i8] c"slurm_signal_job: no list was returned\00", align 1

; Function Attrs: nounwind uwtable
define internal i32 @_local_send_recv_rc_msgs(ptr noundef %0, i32 noundef %1, ptr noundef %2) #0 {
  %4 = alloca ptr, align 8
  %5 = alloca i32, align 4
  %6 = alloca ptr, align 8
  %7 = alloca ptr, align 8
  %8 = alloca i32, align 4
  %9 = alloca i32, align 4
  %10 = alloca ptr, align 8
  %11 = alloca ptr, align 8
  store ptr %0, ptr %4, align 8
  store i32 %1, ptr %5, align 4
  store ptr %2, ptr %6, align 8
  call void @llvm.lifetime.start.p0(i64 8, ptr %7) #6
  store ptr null, ptr %7, align 8
  call void @llvm.lifetime.start.p0(i64 4, ptr %8) #6
  store i32 0, ptr %8, align 4
  call void @llvm.lifetime.start.p0(i64 4, ptr %9) #6
  store i32 0, ptr %9, align 4
  call void @llvm.lifetime.start.p0(i64 8, ptr %10) #6
  store ptr null, ptr %10, align 8
  call void @llvm.lifetime.start.p0(i64 8, ptr %11) #6
  %12 = call ptr @slurm_xcalloc(i64 noundef 1, i64 noundef 424, i1 noundef zeroext true, i1 noundef zeroext false, ptr noundef @.str, i32 noundef 59, ptr noundef @__func__._local_send_recv_rc_msgs)
  store ptr %12, ptr %11, align 8
  %13 = load ptr, ptr %11, align 8
  call void @slurm_msg_t_init(ptr noundef %13)
  %14 = load ptr, ptr %11, align 8
  call void @slurm_msg_set_r_uid(ptr noundef %14, i32 noundef -1)
  %15 = load i32, ptr %5, align 4
  %16 = trunc i32 %15 to i16
  %17 = load ptr, ptr %11, align 8
  %18 = getelementptr inbounds nuw %struct.slurm_msg, ptr %17, i32 0, i32 16
  store i16 %16, ptr %18, align 4
  %19 = load ptr, ptr %6, align 8
  %20 = load ptr, ptr %11, align 8
  %21 = getelementptr inbounds nuw %struct.slurm_msg, ptr %20, i32 0, i32 13
  store ptr %19, ptr %21, align 8
  %22 = load ptr, ptr %4, align 8
  %23 = load ptr, ptr %11, align 8
  %24 = call ptr @slurm_send_recv_msgs(ptr noundef %22, ptr noundef %23, i32 noundef 0)
  store ptr %24, ptr %7, align 8
  %25 = icmp ne ptr %24, null
  br i1 %25, label %26, label %46

26:                                               ; preds = %3
  br label %27

27:                                               ; preds = %44, %26
  %28 = load ptr, ptr %7, align 8
  %29 = call ptr @list_pop(ptr noundef %28)
  store ptr %29, ptr %10, align 8
  %30 = icmp ne ptr %29, null
  br i1 %30, label %31, label %45

31:                                               ; preds = %27
  %32 = load ptr, ptr %10, align 8
  %33 = getelementptr inbounds nuw %struct.ret_data_info, ptr %32, i32 0, i32 0
  %34 = load i16, ptr %33, align 8
  %35 = zext i16 %34 to i32
  %36 = load ptr, ptr %10, align 8
  %37 = getelementptr inbounds nuw %struct.ret_data_info, ptr %36, i32 0, i32 3
  %38 = load ptr, ptr %37, align 8
  %39 = call i32 @slurm_get_return_code(i32 noundef %35, ptr noundef %38)
  store i32 %39, ptr %8, align 4
  %40 = load i32, ptr %8, align 4
  %41 = icmp ne i32 %40, 0
  br i1 %41, label %42, label %44

42:                                               ; preds = %31
  %43 = load i32, ptr %8, align 4
  store i32 %43, ptr %9, align 4
  br label %44

44:                                               ; preds = %42, %31
  br label %27, !llvm.loop !8

45:                                               ; preds = %27
  br label %48

46:                                               ; preds = %3
  %47 = call i32 (ptr, ...) @error(ptr noundef @.str.1)
  store i32 -1, ptr %9, align 4
  br label %48

48:                                               ; preds = %46, %45
  %49 = load ptr, ptr %11, align 8
  %50 = getelementptr inbounds nuw %struct.slurm_msg, ptr %49, i32 0, i32 13
  store ptr null, ptr %50, align 8
  %51 = load ptr, ptr %11, align 8
  call void @slurm_free_msg(ptr noundef %51)
  %52 = load i32, ptr %9, align 4
  call void @llvm.lifetime.end.p0(i64 8, ptr %11) #6
  call void @llvm.lifetime.end.p0(i64 8, ptr %10) #6
  call void @llvm.lifetime.end.p0(i64 4, ptr %9) #6
  call void @llvm.lifetime.end.p0(i64 4, ptr %8) #6
  call void @llvm.lifetime.end.p0(i64 8, ptr %7) #6
  ret i32 %52
}