; Function Attrs: nounwind uwtable
define internal fastcc i32 @_local_send_recv_rc_msgs(ptr noundef %0, i32 noundef range(i32 6004, 6007) %1, ptr noundef nonnull %2) unnamed_addr #0 {
  %4 = tail call ptr @slurm_xcalloc(i64 noundef 1, i64 noundef 424, i1 noundef zeroext true, i1 noundef zeroext false, ptr noundef nonnull @.str, i32 noundef 59, ptr noundef nonnull @__func__._local_send_recv_rc_msgs) #6
  tail call void @slurm_msg_t_init(ptr noundef %4) #6
  tail call void @slurm_msg_set_r_uid(ptr noundef %4, i32 noundef -1) #6
  %5 = trunc nuw nsw i32 %1 to i16
  %6 = getelementptr inbounds nuw i8, ptr %4, i64 212
  store i16 %5, ptr %6, align 4
  %7 = getelementptr inbounds nuw i8, ptr %4, i64 200
  store ptr %2, ptr %7, align 8
  %8 = tail call ptr @slurm_send_recv_msgs(ptr noundef %0, ptr noundef %4, i32 noundef 0) #6
  %.not = icmp eq ptr %8, null
  br i1 %.not, label %17, label %.preheader

.preheader:                                       ; preds = %3
  %9 = tail call ptr @list_pop(ptr noundef nonnull %8) #6
  %.not1719 = icmp eq ptr %9, null
  br i1 %.not1719, label %.loopexit, label %.lr.ph

.lr.ph:                                           ; preds = %.preheader, %.lr.ph
  %10 = phi ptr [ %16, %.lr.ph ], [ %9, %.preheader ]
  %.020 = phi i32 [ %spec.select, %.lr.ph ], [ 0, %.preheader ]
  %11 = load i16, ptr %10, align 8
  %12 = zext i16 %11 to i32
  %13 = getelementptr inbounds nuw i8, ptr %10, i64 16
  %14 = load ptr, ptr %13, align 8
  %15 = tail call i32 @slurm_get_return_code(i32 noundef %12, ptr noundef %14) #6
  %.not18 = icmp eq i32 %15, 0
  %spec.select = select i1 %.not18, i32 %.020, i32 %15
  %16 = tail call ptr @list_pop(ptr noundef nonnull %8) #6
  %.not17 = icmp eq ptr %16, null
  br i1 %.not17, label %.loopexit, label %.lr.ph, !llvm.loop !8

17:                                               ; preds = %3
  %18 = tail call i32 (ptr, ...) @error(ptr noundef nonnull @.str.1) #6
  br label %.loopexit

.loopexit:                                        ; preds = %.lr.ph, %.preheader, %17
  %.2 = phi i32 [ -1, %17 ], [ 0, %.preheader ], [ %spec.select, %.lr.ph ]
  store ptr null, ptr %7, align 8
  tail call void @slurm_free_msg(ptr noundef %4) #6
  ret i32 %.2
}